; Function Attrs: mustprogress uwtable
define internal void @_ZN4absl22internal_any_invocable12LocalInvokerILb0EvRZN12_GLOBAL__N_123gtest_suite_WaiterTest_13WaitTimeWokenINS_24synchronization_internal11FutexWaiterEE8TestBodyEvEUlvE_JEEET0_PNS0_15TypeErasedStateEDpNS0_18ForwardedParameterIT2_E4typeE(ptr nocapture noundef readonly %state) #3 {
entry:
  %0 = load ptr, ptr %state, align 8
  tail call void @_ZN4absl24synchronization_internal11FutexWaiter4PokeEv(ptr noundef nonnull align 4 dereferenceable(4) %0)
  tail call void @AbslInternalSleepFor(i64 0, i32 2000000000)
  %1 = load ptr, ptr %state, align 8
  tail call void @_ZN4absl24synchronization_internal11FutexWaiter4PostEv(ptr noundef nonnull align 4 dereferenceable(4) %1)
  ret void
}